
L4S5I_7SegmentDisplay.elf:     file format elf32-littlearm

Sections:
Idx Name          Size      VMA       LMA       File off  Algn
  0 .isr_vector   000001bc  08000000  08000000  00001000  2**0
                  CONTENTS, ALLOC, LOAD, READONLY, DATA
  1 .text         00000234  080001bc  080001bc  000011bc  2**2
                  CONTENTS, ALLOC, LOAD, READONLY, CODE
  2 .rodata       0000000c  080003f0  080003f0  000013f0  2**0
                  CONTENTS, ALLOC, LOAD, READONLY, DATA
  3 .ARM.extab    00000000  080003fc  080003fc  00001404  2**0
                  CONTENTS, READONLY
  4 .ARM          00000000  080003fc  080003fc  00001404  2**0
                  CONTENTS, READONLY
  5 .preinit_array 00000000  080003fc  08000404  00001404  2**0
                  CONTENTS, ALLOC, LOAD, DATA
  6 .init_array   00000004  080003fc  080003fc  000013fc  2**2
                  CONTENTS, ALLOC, LOAD, READONLY, DATA
  7 .fini_array   00000004  08000400  08000400  00001400  2**2
                  CONTENTS, ALLOC, LOAD, READONLY, DATA
  8 .data         00000000  20000000  20000000  00001404  2**0
                  CONTENTS, ALLOC, LOAD, DATA
  9 .bss          0000001c  20000000  08000404  00002000  2**2
                  ALLOC
 10 ._user_heap_stack 00000604  2000001c  08000404  0000201c  2**0
                  ALLOC
 11 .ARM.attributes 00000030  00000000  00000000  00001404  2**0
                  CONTENTS, READONLY
 12 .comment      00000043  00000000  00000000  00001434  2**0
                  CONTENTS, READONLY
 13 .debug_frame  0000002c  00000000  00000000  00001478  2**2
                  CONTENTS, READONLY, DEBUGGING, OCTETS

Disassembly of section .text:

080001bc <__do_global_dtors_aux>:
 80001bc:	b510      	push	{r4, lr}
 80001be:	4c05      	ldr	r4, [pc, #20]	@ (80001d4 <__do_global_dtors_aux+0x18>)
 80001c0:	7823      	ldrb	r3, [r4, #0]
 80001c2:	b933      	cbnz	r3, 80001d2 <__do_global_dtors_aux+0x16>
 80001c4:	4b04      	ldr	r3, [pc, #16]	@ (80001d8 <__do_global_dtors_aux+0x1c>)
 80001c6:	b113      	cbz	r3, 80001ce <__do_global_dtors_aux+0x12>
 80001c8:	4804      	ldr	r0, [pc, #16]	@ (80001dc <__do_global_dtors_aux+0x20>)
 80001ca:	f3af 8000 	nop.w
 80001ce:	2301      	movs	r3, #1
 80001d0:	7023      	strb	r3, [r4, #0]
 80001d2:	bd10      	pop	{r4, pc}
 80001d4:	20000000 	.word	0x20000000
 80001d8:	00000000 	.word	0x00000000
 80001dc:	080003d8 	.word	0x080003d8

080001e0 <frame_dummy>:
 80001e0:	b508      	push	{r3, lr}
 80001e2:	4b03      	ldr	r3, [pc, #12]	@ (80001f0 <frame_dummy+0x10>)
 80001e4:	b11b      	cbz	r3, 80001ee <frame_dummy+0xe>
 80001e6:	4903      	ldr	r1, [pc, #12]	@ (80001f4 <frame_dummy+0x14>)
 80001e8:	4803      	ldr	r0, [pc, #12]	@ (80001f8 <frame_dummy+0x18>)
 80001ea:	f3af 8000 	nop.w
 80001ee:	bd08      	pop	{r3, pc}
 80001f0:	00000000 	.word	0x00000000
 80001f4:	20000004 	.word	0x20000004
 80001f8:	080003d8 	.word	0x080003d8

080001fc <SystemInit>:
 80001fc:	4a03      	ldr	r2, [pc, #12]	@ (800020c <SystemInit+0x10>)
 80001fe:	f8d2 3088 	ldr.w	r3, [r2, #136]	@ 0x88
 8000202:	f443 0370 	orr.w	r3, r3, #15728640	@ 0xf00000
 8000206:	f8c2 3088 	str.w	r3, [r2, #136]	@ 0x88
 800020a:	4770      	bx	lr
 800020c:	e000ed00 	.word	0xe000ed00

08000210 <main>:
 8000210:	b5f0      	push	{r4, r5, r6, r7, lr}
 8000212:	4a46      	ldr	r2, [pc, #280]	@ (800032c <main+0x11c>)
 8000214:	6cd3      	ldr	r3, [r2, #76]	@ 0x4c
 8000216:	f043 0305 	orr.w	r3, r3, #5
 800021a:	b087      	sub	sp, #28
 800021c:	64d3      	str	r3, [r2, #76]	@ 0x4c
 800021e:	4b44      	ldr	r3, [pc, #272]	@ (8000330 <main+0x120>)
 8000220:	681a      	ldr	r2, [r3, #0]
 8000222:	f022 02ff 	bic.w	r2, r2, #255	@ 0xff
 8000226:	601a      	str	r2, [r3, #0]
 8000228:	681a      	ldr	r2, [r3, #0]
 800022a:	f04f 4190 	mov.w	r1, #1207959552	@ 0x48000000
 800022e:	f042 0255 	orr.w	r2, r2, #85	@ 0x55
 8000232:	601a      	str	r2, [r3, #0]
 8000234:	680a      	ldr	r2, [r1, #0]
 8000236:	f36f 020f 	bfc	r2, #0, #16
 800023a:	600a      	str	r2, [r1, #0]
 800023c:	680a      	ldr	r2, [r1, #0]
 800023e:	f442 42aa 	orr.w	r2, r2, #21760	@ 0x5500
 8000242:	f042 0255 	orr.w	r2, r2, #85	@ 0x55
 8000246:	600a      	str	r2, [r1, #0]
 8000248:	2200      	movs	r2, #0
 800024a:	493a      	ldr	r1, [pc, #232]	@ (8000334 <main+0x124>)
 800024c:	9200      	str	r2, [sp, #0]
 800024e:	9a00      	ldr	r2, [sp, #0]
 8000250:	428a      	cmp	r2, r1
 8000252:	d95f      	bls.n	8000314 <main+0x104>
 8000254:	695a      	ldr	r2, [r3, #20]
 8000256:	f04f 4490 	mov.w	r4, #1207959552	@ 0x48000000
 800025a:	f042 020f 	orr.w	r2, r2, #15
 800025e:	615a      	str	r2, [r3, #20]
 8000260:	6963      	ldr	r3, [r4, #20]
 8000262:	4a35      	ldr	r2, [pc, #212]	@ (8000338 <main+0x128>)
 8000264:	f043 03ff 	orr.w	r3, r3, #255	@ 0xff
 8000268:	6851      	ldr	r1, [r2, #4]
 800026a:	6810      	ldr	r0, [r2, #0]
 800026c:	6163      	str	r3, [r4, #20]
 800026e:	ab03      	add	r3, sp, #12
 8000270:	c303      	stmia	r3!, {r0, r1}
 8000272:	8912      	ldrh	r2, [r2, #8]
 8000274:	492e      	ldr	r1, [pc, #184]	@ (8000330 <main+0x120>)
 8000276:	801a      	strh	r2, [r3, #0]
 8000278:	2501      	movs	r5, #1
 800027a:	2600      	movs	r6, #0
 800027c:	f640 73ff 	movw	r3, #4095	@ 0xfff
 8000280:	2200      	movs	r2, #0
 8000282:	6948      	ldr	r0, [r1, #20]
 8000284:	f040 000f 	orr.w	r0, r0, #15
 8000288:	6148      	str	r0, [r1, #20]
 800028a:	6948      	ldr	r0, [r1, #20]
 800028c:	f1c2 0703 	rsb	r7, r2, #3
 8000290:	fa05 f707 	lsl.w	r7, r5, r7
 8000294:	ea20 0007 	bic.w	r0, r0, r7
 8000298:	6148      	str	r0, [r1, #20]
 800029a:	6960      	ldr	r0, [r4, #20]
 800029c:	f102 0718 	add.w	r7, r2, #24
 80002a0:	f040 00ff 	orr.w	r0, r0, #255	@ 0xff
 80002a4:	446f      	add	r7, sp
 80002a6:	6160      	str	r0, [r4, #20]
 80002a8:	6960      	ldr	r0, [r4, #20]
 80002aa:	f817 7c0c 	ldrb.w	r7, [r7, #-12]
 80002ae:	2a04      	cmp	r2, #4
 80002b0:	ea20 0007 	bic.w	r0, r0, r7
 80002b4:	6160      	str	r0, [r4, #20]
 80002b6:	bf14      	ite	ne
 80002b8:	3201      	addne	r2, #1
 80002ba:	2200      	moveq	r2, #0
 80002bc:	9601      	str	r6, [sp, #4]
 80002be:	9801      	ldr	r0, [sp, #4]
 80002c0:	28fe      	cmp	r0, #254	@ 0xfe
 80002c2:	d92b      	bls.n	800031c <main+0x10c>
 80002c4:	3b01      	subs	r3, #1
 80002c6:	d1dc      	bne.n	8000282 <main+0x72>
 80002c8:	f640 72ff 	movw	r2, #4095	@ 0xfff
 80002cc:	6948      	ldr	r0, [r1, #20]
 80002ce:	f040 000f 	orr.w	r0, r0, #15
 80002d2:	6148      	str	r0, [r1, #20]
 80002d4:	6948      	ldr	r0, [r1, #20]
 80002d6:	f1c3 0703 	rsb	r7, r3, #3
 80002da:	fa05 f707 	lsl.w	r7, r5, r7
 80002de:	ea20 0007 	bic.w	r0, r0, r7
 80002e2:	6148      	str	r0, [r1, #20]
 80002e4:	6960      	ldr	r0, [r4, #20]
 80002e6:	f103 0718 	add.w	r7, r3, #24
 80002ea:	f040 00ff 	orr.w	r0, r0, #255	@ 0xff
 80002ee:	446f      	add	r7, sp
 80002f0:	6160      	str	r0, [r4, #20]
 80002f2:	6960      	ldr	r0, [r4, #20]
 80002f4:	f817 7c08 	ldrb.w	r7, [r7, #-8]
 80002f8:	2b04      	cmp	r3, #4
 80002fa:	ea20 0007 	bic.w	r0, r0, r7
 80002fe:	6160      	str	r0, [r4, #20]
 8000300:	bf14      	ite	ne
 8000302:	3301      	addne	r3, #1
 8000304:	2300      	moveq	r3, #0
 8000306:	9602      	str	r6, [sp, #8]
 8000308:	9802      	ldr	r0, [sp, #8]
 800030a:	28fe      	cmp	r0, #254	@ 0xfe
 800030c:	d90a      	bls.n	8000324 <main+0x114>
 800030e:	3a01      	subs	r2, #1
 8000310:	d1dc      	bne.n	80002cc <main+0xbc>
 8000312:	e7b3      	b.n	800027c <main+0x6c>
 8000314:	9a00      	ldr	r2, [sp, #0]
 8000316:	3201      	adds	r2, #1
 8000318:	9200      	str	r2, [sp, #0]
 800031a:	e798      	b.n	800024e <main+0x3e>
 800031c:	9801      	ldr	r0, [sp, #4]
 800031e:	3001      	adds	r0, #1
 8000320:	9001      	str	r0, [sp, #4]
 8000322:	e7cc      	b.n	80002be <main+0xae>
 8000324:	9802      	ldr	r0, [sp, #8]
 8000326:	3001      	adds	r0, #1
 8000328:	9002      	str	r0, [sp, #8]
 800032a:	e7ed      	b.n	8000308 <main+0xf8>
 800032c:	40021000 	.word	0x40021000
 8000330:	48000800 	.word	0x48000800
 8000334:	0007fffe 	.word	0x0007fffe
 8000338:	080003f0 	.word	0x080003f0

0800033c <Reset_Handler>:
 800033c:	f8df d034 	ldr.w	sp, [pc, #52]	@ 8000374 <LoopForever+0x2>
 8000340:	f7ff ff5c 	bl	80001fc <SystemInit>
 8000344:	480c      	ldr	r0, [pc, #48]	@ (8000378 <LoopForever+0x6>)
 8000346:	490d      	ldr	r1, [pc, #52]	@ (800037c <LoopForever+0xa>)
 8000348:	4a0d      	ldr	r2, [pc, #52]	@ (8000380 <LoopForever+0xe>)
 800034a:	2300      	movs	r3, #0
 800034c:	e002      	b.n	8000354 <LoopCopyDataInit>

0800034e <CopyDataInit>:
 800034e:	58d4      	ldr	r4, [r2, r3]
 8000350:	50c4      	str	r4, [r0, r3]
 8000352:	3304      	adds	r3, #4

08000354 <LoopCopyDataInit>:
 8000354:	18c4      	adds	r4, r0, r3
 8000356:	428c      	cmp	r4, r1
 8000358:	d3f9      	bcc.n	800034e <CopyDataInit>
 800035a:	4a0a      	ldr	r2, [pc, #40]	@ (8000384 <LoopForever+0x12>)
 800035c:	4c0a      	ldr	r4, [pc, #40]	@ (8000388 <LoopForever+0x16>)
 800035e:	2300      	movs	r3, #0
 8000360:	e001      	b.n	8000366 <LoopFillZerobss>

08000362 <FillZerobss>:
 8000362:	6013      	str	r3, [r2, #0]
 8000364:	3204      	adds	r2, #4

08000366 <LoopFillZerobss>:
 8000366:	42a2      	cmp	r2, r4
 8000368:	d3fb      	bcc.n	8000362 <FillZerobss>
 800036a:	f000 f811 	bl	8000390 <__libc_init_array>
 800036e:	f7ff ff4f 	bl	8000210 <main>

08000372 <LoopForever>:
 8000372:	e7fe      	b.n	8000372 <LoopForever>
 8000374:	200a0000 	.word	0x200a0000
 8000378:	20000000 	.word	0x20000000
 800037c:	20000000 	.word	0x20000000
 8000380:	08000404 	.word	0x08000404
 8000384:	20000000 	.word	0x20000000
 8000388:	2000001c 	.word	0x2000001c

0800038c <ADC1_IRQHandler>:
 800038c:	e7fe      	b.n	800038c <ADC1_IRQHandler>
	...

08000390 <__libc_init_array>:
 8000390:	b570      	push	{r4, r5, r6, lr}
 8000392:	4d0d      	ldr	r5, [pc, #52]	@ (80003c8 <__libc_init_array+0x38>)
 8000394:	4c0d      	ldr	r4, [pc, #52]	@ (80003cc <__libc_init_array+0x3c>)
 8000396:	1b64      	subs	r4, r4, r5
 8000398:	10a4      	asrs	r4, r4, #2
 800039a:	2600      	movs	r6, #0
 800039c:	42a6      	cmp	r6, r4
 800039e:	d109      	bne.n	80003b4 <__libc_init_array+0x24>
 80003a0:	4d0b      	ldr	r5, [pc, #44]	@ (80003d0 <__libc_init_array+0x40>)
 80003a2:	4c0c      	ldr	r4, [pc, #48]	@ (80003d4 <__libc_init_array+0x44>)
 80003a4:	f000 f818 	bl	80003d8 <_init>
 80003a8:	1b64      	subs	r4, r4, r5
 80003aa:	10a4      	asrs	r4, r4, #2
 80003ac:	2600      	movs	r6, #0
 80003ae:	42a6      	cmp	r6, r4
 80003b0:	d105      	bne.n	80003be <__libc_init_array+0x2e>
 80003b2:	bd70      	pop	{r4, r5, r6, pc}
 80003b4:	f855 3b04 	ldr.w	r3, [r5], #4
 80003b8:	4798      	blx	r3
 80003ba:	3601      	adds	r6, #1
 80003bc:	e7ee      	b.n	800039c <__libc_init_array+0xc>
 80003be:	f855 3b04 	ldr.w	r3, [r5], #4
 80003c2:	4798      	blx	r3
 80003c4:	3601      	adds	r6, #1
 80003c6:	e7f2      	b.n	80003ae <__libc_init_array+0x1e>
 80003c8:	080003fc 	.word	0x080003fc
 80003cc:	080003fc 	.word	0x080003fc
 80003d0:	080003fc 	.word	0x080003fc
 80003d4:	08000400 	.word	0x08000400

080003d8 <_init>:
 80003d8:	b5f8      	push	{r3, r4, r5, r6, r7, lr}
 80003da:	bf00      	nop
 80003dc:	bcf8      	pop	{r3, r4, r5, r6, r7}
 80003de:	bc08      	pop	{r3}
 80003e0:	469e      	mov	lr, r3
 80003e2:	4770      	bx	lr

080003e4 <_fini>:
 80003e4:	b5f8      	push	{r3, r4, r5, r6, r7, lr}
 80003e6:	bf00      	nop
 80003e8:	bcf8      	pop	{r3, r4, r5, r6, r7}
 80003ea:	bc08      	pop	{r3}
 80003ec:	469e      	mov	lr, r3
 80003ee:	4770      	bx	lr
